target datalayout = "e-m:e-p270:32:32-p271:32:32-p272:64:64-i64:64-i128:128-f80:128-n8:16:32:64-S128"
target triple = "x86_64-pc-linux-gnu"

%"class.std::__cxx11::basic_string" = type { %"struct.std::__cxx11::basic_string<char>::_Alloc_hider", i64, %union.anon }
%"struct.std::__cxx11::basic_string<char>::_Alloc_hider" = type { ptr }
%union.anon = type { i64, [8 x i8] }
%"class.rocksdb::PlainTableFactory" = type { %"class.rocksdb::TableFactory", %"struct.rocksdb::PlainTableOptions" }
%"class.rocksdb::TableFactory" = type { %"class.rocksdb::Customizable" }
%"class.rocksdb::Customizable" = type { %"class.rocksdb::Configurable" }
%"class.rocksdb::Configurable" = type { ptr, %"class.std::vector.19" }
%"class.std::vector.19" = type { %"struct.std::_Vector_base.20" }
%"struct.std::_Vector_base.20" = type { %"struct.std::_Vector_base<rocksdb::Configurable::RegisteredOptions, std::allocator<rocksdb::Configurable::RegisteredOptions>>::_Vector_impl" }
%"struct.std::_Vector_base<rocksdb::Configurable::RegisteredOptions, std::allocator<rocksdb::Configurable::RegisteredOptions>>::_Vector_impl" = type { %"struct.std::_Vector_base<rocksdb::Configurable::RegisteredOptions, std::allocator<rocksdb::Configurable::RegisteredOptions>>::_Vector_impl_data" }
%"struct.std::_Vector_base<rocksdb::Configurable::RegisteredOptions, std::allocator<rocksdb::Configurable::RegisteredOptions>>::_Vector_impl_data" = type { ptr, ptr, ptr }
%"struct.rocksdb::PlainTableOptions" = type <{ i32, i32, double, i64, i64, i8, i8, i8, [5 x i8] }>
%"struct.rocksdb::TableBuilderOptions" = type { %"struct.rocksdb::TablePropertiesCollectorFactory::Context", ptr, ptr, ptr, ptr, ptr, ptr, i8, ptr, ptr, i64, i64, i64, i64, %"class.std::__cxx11::basic_string", %"class.std::__cxx11::basic_string", i8, i32, i8, i64 }
%"struct.rocksdb::TablePropertiesCollectorFactory::Context" = type { i32, i32, i32, i64 }

; Function Attrs: mustprogress uwtable
define noundef ptr @_ZNK7rocksdb17PlainTableFactory15NewTableBuilderERKNS_19TableBuilderOptionsEPNS_18WritableFileWriterE(ptr noundef nonnull align 8 dereferenceable(72) %0, ptr noundef nonnull align 8 dereferenceable(216) %1, ptr noundef %2) unnamed_addr #5 align 2 personality ptr @__gxx_personality_v0 {
  %4 = alloca ptr, align 8
  %5 = alloca ptr, align 8
  %6 = alloca ptr, align 8
  %7 = alloca ptr, align 8
  %8 = alloca i32, align 4
  store ptr %0, ptr %4, align 8, !tbaa !93
  store ptr %1, ptr %5, align 8, !tbaa !154
  store ptr %2, ptr %6, align 8, !tbaa !156
  %9 = load ptr, ptr %4, align 8
  %10 = call noalias noundef nonnull ptr @_Znwm(i64 noundef 3440) #24
  %11 = load ptr, ptr %5, align 8, !tbaa !154
  %12 = getelementptr inbounds nuw %"struct.rocksdb::TableBuilderOptions", ptr %11, i32 0, i32 1
  %13 = load ptr, ptr %12, align 8, !tbaa !158
  %14 = load ptr, ptr %5, align 8, !tbaa !154
  %15 = getelementptr inbounds nuw %"struct.rocksdb::TableBuilderOptions", ptr %14, i32 0, i32 2
  %16 = load ptr, ptr %15, align 8, !tbaa !167
  %17 = load ptr, ptr %5, align 8, !tbaa !154
  %18 = getelementptr inbounds nuw %"struct.rocksdb::TableBuilderOptions", ptr %17, i32 0, i32 6
  %19 = load ptr, ptr %18, align 8, !tbaa !168
  %20 = load ptr, ptr %5, align 8, !tbaa !154
  %21 = getelementptr inbounds nuw %"struct.rocksdb::TablePropertiesCollectorFactory::Context", ptr %20, i32 0, i32 0
  %22 = load i32, ptr %21, align 8, !tbaa !169
  %23 = load ptr, ptr %5, align 8, !tbaa !154
  %24 = getelementptr inbounds nuw %"struct.rocksdb::TablePropertiesCollectorFactory::Context", ptr %23, i32 0, i32 1
  %25 = load i32, ptr %24, align 4, !tbaa !170
  %26 = load ptr, ptr %6, align 8, !tbaa !156
  %27 = getelementptr inbounds nuw %"class.rocksdb::PlainTableFactory", ptr %9, i32 0, i32 1
  %28 = getelementptr inbounds nuw %"struct.rocksdb::PlainTableOptions", ptr %27, i32 0, i32 0
  %29 = load i32, ptr %28, align 8, !tbaa !171
  %30 = getelementptr inbounds nuw %"class.rocksdb::PlainTableFactory", ptr %9, i32 0, i32 1
  %31 = getelementptr inbounds nuw %"struct.rocksdb::PlainTableOptions", ptr %30, i32 0, i32 5
  %32 = load i8, ptr %31, align 8, !tbaa !172
  %33 = getelementptr inbounds nuw %"class.rocksdb::PlainTableFactory", ptr %9, i32 0, i32 1
  %34 = getelementptr inbounds nuw %"struct.rocksdb::PlainTableOptions", ptr %33, i32 0, i32 3
  %35 = load i64, ptr %34, align 8, !tbaa !140
  %36 = getelementptr inbounds nuw %"class.rocksdb::PlainTableFactory", ptr %9, i32 0, i32 1
  %37 = getelementptr inbounds nuw %"struct.rocksdb::PlainTableOptions", ptr %36, i32 0, i32 1
  %38 = load i32, ptr %37, align 4, !tbaa !128
  %39 = load ptr, ptr %5, align 8, !tbaa !154
  %40 = getelementptr inbounds nuw %"struct.rocksdb::TableBuilderOptions", ptr %39, i32 0, i32 9
  %41 = load ptr, ptr %40, align 8, !tbaa !173
  %42 = getelementptr inbounds nuw %"class.rocksdb::PlainTableFactory", ptr %9, i32 0, i32 1
  %43 = getelementptr inbounds nuw %"struct.rocksdb::PlainTableOptions", ptr %42, i32 0, i32 4
  %44 = load i64, ptr %43, align 8, !tbaa !141
  %45 = getelementptr inbounds nuw %"class.rocksdb::PlainTableFactory", ptr %9, i32 0, i32 1
  %46 = getelementptr inbounds nuw %"struct.rocksdb::PlainTableOptions", ptr %45, i32 0, i32 2
  %47 = load double, ptr %46, align 8, !tbaa !139
  %48 = getelementptr inbounds nuw %"class.rocksdb::PlainTableFactory", ptr %9, i32 0, i32 1
  %49 = getelementptr inbounds nuw %"struct.rocksdb::PlainTableOptions", ptr %48, i32 0, i32 7
  %50 = load i8, ptr %49, align 2, !tbaa !174, !range !143, !noundef !144
  %51 = trunc i8 %50 to i1
  %52 = load ptr, ptr %5, align 8, !tbaa !154
  %53 = getelementptr inbounds nuw %"struct.rocksdb::TableBuilderOptions", ptr %52, i32 0, i32 14
  %54 = load ptr, ptr %5, align 8, !tbaa !154
  %55 = getelementptr inbounds nuw %"struct.rocksdb::TableBuilderOptions", ptr %54, i32 0, i32 15
  %56 = load ptr, ptr %5, align 8, !tbaa !154
  %57 = getelementptr inbounds nuw %"struct.rocksdb::TableBuilderOptions", ptr %56, i32 0, i32 19
  %58 = load i64, ptr %57, align 8, !tbaa !175
  invoke void @_ZN7rocksdb17PlainTableBuilderC1ERKNS_16ImmutableOptionsERKNS_16MutableCFOptionsEPKSt6vectorISt10unique_ptrINS_26InternalTblPropCollFactoryESt14default_deleteIS9_EESaISC_EEjiPNS_18WritableFileWriterEjNS_12EncodingTypeEmjRKNSt7__cxx1112basic_stringIcSt11char_traitsIcESaIcEEEjmdbSR_SR_m(ptr noundef nonnull align 16 dereferenceable(3440) %10, ptr noundef nonnull align 8 dereferenceable(849) %13, ptr noundef nonnull align 8 dereferenceable(608) %16, ptr noundef %19, i32 noundef %22, i32 noundef %25, ptr noundef %26, i32 noundef %29, i8 noundef signext %32, i64 noundef %35, i32 noundef %38, ptr noundef nonnull align 8 dereferenceable(32) %41, i32 noundef 6, i64 noundef %44, double noundef %47, i1 noundef zeroext %51, ptr noundef nonnull align 8 dereferenceable(32) %53, ptr noundef nonnull align 8 dereferenceable(32) %55, i64 noundef %58)
          to label %59 unwind label %60

59:                                               ; preds = %3
  ret ptr %10

60:                                               ; preds = %3
  %61 = landingpad { ptr, i32 }
          cleanup
  %62 = extractvalue { ptr, i32 } %61, 0
  store ptr %62, ptr %7, align 8
  %63 = extractvalue { ptr, i32 } %61, 1
  store i32 %63, ptr %8, align 4
  call void @_ZdlPvm(ptr noundef %10, i64 noundef 3440) #25
  br label %64

64:                                               ; preds = %60
  %65 = load ptr, ptr %7, align 8
  %66 = load i32, ptr %8, align 4
  %67 = insertvalue { ptr, i32 } poison, ptr %65, 0
  %68 = insertvalue { ptr, i32 } %67, i32 %66, 1
  resume { ptr, i32 } %68
}