; Function Attrs: mustprogress uwtable
define noundef nonnull ptr @_ZNK7rocksdb17PlainTableFactory15NewTableBuilderERKNS_19TableBuilderOptionsEPNS_18WritableFileWriterE(ptr noundef nonnull readonly align 8 captures(none) dereferenceable(72) %0, ptr noundef nonnull align 8 dereferenceable(216) %1, ptr noundef %2) unnamed_addr #4 align 2 personality ptr @__gxx_personality_v0 {
  %4 = tail call noalias noundef nonnull dereferenceable(3440) ptr @_Znwm(i64 noundef 3440) #29
  %5 = getelementptr inbounds nuw i8, ptr %1, i64 24
  %6 = load ptr, ptr %5, align 8, !tbaa !96
  %7 = getelementptr inbounds nuw i8, ptr %1, i64 32
  %8 = load ptr, ptr %7, align 8, !tbaa !107
  %9 = getelementptr inbounds nuw i8, ptr %1, i64 64
  %10 = load ptr, ptr %9, align 8, !tbaa !108
  %11 = load i32, ptr %1, align 8, !tbaa !109
  %12 = getelementptr inbounds nuw i8, ptr %1, i64 4
  %13 = load i32, ptr %12, align 4, !tbaa !110
  %14 = getelementptr inbounds nuw i8, ptr %0, i64 32
  %15 = load i32, ptr %14, align 8, !tbaa !111
  %16 = getelementptr inbounds nuw i8, ptr %0, i64 64
  %17 = load i8, ptr %16, align 8, !tbaa !112
  %18 = getelementptr inbounds nuw i8, ptr %0, i64 48
  %19 = load i64, ptr %18, align 8, !tbaa !84
  %20 = getelementptr inbounds nuw i8, ptr %0, i64 36
  %21 = load i32, ptr %20, align 4, !tbaa !72
  %22 = getelementptr inbounds nuw i8, ptr %1, i64 88
  %23 = load ptr, ptr %22, align 8, !tbaa !113
  %24 = getelementptr inbounds nuw i8, ptr %0, i64 56
  %25 = load i64, ptr %24, align 8, !tbaa !85
  %26 = getelementptr inbounds nuw i8, ptr %0, i64 40
  %27 = load double, ptr %26, align 8, !tbaa !83
  %28 = getelementptr inbounds nuw i8, ptr %0, i64 66
  %29 = load i8, ptr %28, align 2, !tbaa !114, !range !87, !noundef !88
  %30 = trunc nuw i8 %29 to i1
  %31 = getelementptr inbounds nuw i8, ptr %1, i64 128
  %32 = getelementptr inbounds nuw i8, ptr %1, i64 160
  %33 = getelementptr inbounds nuw i8, ptr %1, i64 208
  %34 = load i64, ptr %33, align 8, !tbaa !115
  invoke void @_ZN7rocksdb17PlainTableBuilderC1ERKNS_16ImmutableOptionsERKNS_16MutableCFOptionsEPKSt6vectorISt10unique_ptrINS_26InternalTblPropCollFactoryESt14default_deleteIS9_EESaISC_EEjiPNS_18WritableFileWriterEjNS_12EncodingTypeEmjRKNSt7__cxx1112basic_stringIcSt11char_traitsIcESaIcEEEjmdbSR_SR_m(ptr noundef nonnull align 16 dereferenceable(3440) %4, ptr noundef nonnull align 8 dereferenceable(849) %6, ptr noundef nonnull align 8 dereferenceable(608) %8, ptr noundef %10, i32 noundef %11, i32 noundef %13, ptr noundef %2, i32 noundef %15, i8 noundef signext %17, i64 noundef %19, i32 noundef %21, ptr noundef nonnull align 8 dereferenceable(32) %23, i32 noundef 6, i64 noundef %25, double noundef %27, i1 noundef zeroext %30, ptr noundef nonnull align 8 dereferenceable(32) %31, ptr noundef nonnull align 8 dereferenceable(32) %32, i64 noundef %34)
          to label %35 unwind label %36

35:                                               ; preds = %3
  ret ptr %4

36:                                               ; preds = %3
  %37 = landingpad { ptr, i32 }
          cleanup
  tail call void @_ZdlPvm(ptr noundef nonnull %4, i64 noundef 3440) #26
  resume { ptr, i32 } %37
}